target datalayout = "e-m:e-p270:32:32-p271:32:32-p272:64:64-i64:64-i128:128-f80:128-n8:16:32:64-S128"
target triple = "x86_64-pc-linux-gnu"

@png_sig_cmp.png_signature = internal constant [8 x i8] c"\89PNG\0D\0A\1A\0A", align 1

; Function Attrs: nounwind uwtable
define i32 @png_sig_cmp(ptr noundef %0, i64 noundef %1, i64 noundef %2) #0 {
  %4 = alloca i32, align 4
  %5 = alloca ptr, align 8
  %6 = alloca i64, align 8
  %7 = alloca i64, align 8
  store ptr %0, ptr %5, align 8
  store i64 %1, ptr %6, align 8
  store i64 %2, ptr %7, align 8
  %8 = load i64, ptr %7, align 8
  %9 = icmp ugt i64 %8, 8
  br i1 %9, label %10, label %11

10:                                               ; preds = %3
  store i64 8, ptr %7, align 8
  br label %16

11:                                               ; preds = %3
  %12 = load i64, ptr %7, align 8
  %13 = icmp ult i64 %12, 1
  br i1 %13, label %14, label %15

14:                                               ; preds = %11
  store i32 -1, ptr %4, align 4
  br label %36

15:                                               ; preds = %11
  br label %16

16:                                               ; preds = %15, %10
  %17 = load i64, ptr %6, align 8
  %18 = icmp ugt i64 %17, 7
  br i1 %18, label %19, label %20

19:                                               ; preds = %16
  store i32 -1, ptr %4, align 4
  br label %36

20:                                               ; preds = %16
  %21 = load i64, ptr %6, align 8
  %22 = load i64, ptr %7, align 8
  %23 = add i64 %21, %22
  %24 = icmp ugt i64 %23, 8
  br i1 %24, label %25, label %28

25:                                               ; preds = %20
  %26 = load i64, ptr %6, align 8
  %27 = sub i64 8, %26
  store i64 %27, ptr %7, align 8
  br label %28

28:                                               ; preds = %25, %20
  %29 = load ptr, ptr %5, align 8
  %30 = load i64, ptr %6, align 8
  %31 = getelementptr inbounds i8, ptr %29, i64 %30
  %32 = load i64, ptr %6, align 8
  %33 = getelementptr inbounds [8 x i8], ptr @png_sig_cmp.png_signature, i64 0, i64 %32
  %34 = load i64, ptr %7, align 8
  %35 = call i32 @memcmp(ptr noundef %31, ptr noundef %33, i64 noundef %34) #11
  store i32 %35, ptr %4, align 4
  br label %36

36:                                               ; preds = %28, %19, %14
  %37 = load i32, ptr %4, align 4
  ret i32 %37
}