; Function Attrs: mustprogress nofree nounwind willreturn memory(argmem: read) uwtable
define i32 @png_sig_cmp(ptr nocapture noundef readonly %0, i64 noundef %1, i64 noundef %2) local_unnamed_addr #2 {
  %4 = icmp ugt i64 %2, 8
  br i1 %4, label %7, label %5

5:                                                ; preds = %3
  %6 = icmp eq i64 %2, 0
  br i1 %6, label %16, label %7

7:                                                ; preds = %3, %5
  %.0 = phi i64 [ %2, %5 ], [ 8, %3 ]
  %8 = icmp ugt i64 %1, 7
  br i1 %8, label %16, label %9

9:                                                ; preds = %7
  %10 = add nuw nsw i64 %.0, %1
  %11 = icmp ugt i64 %10, 8
  %12 = sub nuw nsw i64 8, %1
  %spec.select = select i1 %11, i64 %12, i64 %.0
  %13 = getelementptr inbounds i8, ptr %0, i64 %1
  %14 = getelementptr inbounds [8 x i8], ptr @png_sig_cmp.png_signature, i64 0, i64 %1
  %15 = tail call i32 @memcmp(ptr noundef %13, ptr noundef nonnull %14, i64 noundef %spec.select) #28
  br label %16

16:                                               ; preds = %7, %5, %9
  %.010 = phi i32 [ %15, %9 ], [ -1, %5 ], [ -1, %7 ]
  ret i32 %.010
}